; Function Attrs: mustprogress nounwind uwtable
define dso_local noundef ptr @_ZNK4node9inspector8protocol15DictionaryValue3getERKNSt7__cxx1112basic_stringIcSt11char_traitsIcESaIcEEE(ptr noundef nonnull align 8 dereferenceable(96) %this, ptr noundef nonnull align 8 dereferenceable(32) %name) local_unnamed_addr #1 align 2 {
entry:
  %m_data = getelementptr inbounds i8, ptr %this, i64 16
  %call.i = tail call ptr @_ZNKSt10_HashtableINSt7__cxx1112basic_stringIcSt11char_traitsIcESaIcEEESt4pairIKS5_St10unique_ptrIN4node9inspector8protocol5ValueESt14default_deleteISC_EEESaISG_ENSt8__detail10_Select1stESt8equal_toIS5_ESt4hashIS5_ENSI_18_Mod_range_hashingENSI_20_Default_ranged_hashENSI_20_Prime_rehash_policyENSI_17_Hashtable_traitsILb1ELb0ELb1EEEE4findERS7_(ptr noundef nonnull align 8 dereferenceable(56) %m_data, ptr noundef nonnull align 8 dereferenceable(32) %name)
  %cmp.i = icmp eq ptr %call.i, null
  br i1 %cmp.i, label %return, label %if.end

if.end:                                           ; preds = %entry
  %second = getelementptr inbounds i8, ptr %call.i, i64 40
  %0 = load ptr, ptr %second, align 8
  br label %return

return:                                           ; preds = %entry, %if.end
  %retval.0 = phi ptr [ %0, %if.end ], [ null, %entry ]
  ret ptr %retval.0
}